target datalayout = "e-m:e-p270:32:32-p271:32:32-p272:64:64-i64:64-i128:128-f80:128-n8:16:32:64-S128"
target triple = "x86_64-pc-linux-gnu"

%struct.timeval = type { i64, i64 }
%union.pthread_mutex_t = type { %struct.__pthread_mutex_s }
%struct.__pthread_mutex_s = type { i32, i32, i32, i32, i32, i16, i16, %struct.__pthread_internal_list }
%struct.__pthread_internal_list = type { ptr, ptr }
%struct.event = type { %struct.event_callback, %union.anon.1, i32, ptr, %union.anon.3, i16, i16, %struct.timeval }
%struct.event_callback = type { %struct.anon.0, i16, i8, i8, %union.anon, ptr }
%struct.anon.0 = type { ptr, ptr }
%union.anon = type { ptr }
%union.anon.1 = type { %struct.anon.2 }
%struct.anon.2 = type { ptr, ptr }
%union.anon.3 = type { %struct.anon.4 }
%struct.anon.4 = type { %struct.anon.5, %struct.timeval }
%struct.anon.5 = type { ptr, ptr }
%struct.sockaddr_in6 = type { i16, i16, i32, %struct.in6_addr, i32 }
%struct.in6_addr = type { %union.anon.8 }
%union.anon.8 = type { [4 x i32] }
%struct.LIBEVENT_THREAD = type { i64, ptr, %struct.thread_notify, %struct.thread_notify, %union.pthread_mutex_t, %struct.iop_head_s, i32, i32, i32, %struct.thread_stats, [3 x %struct.io_queue_s], ptr, ptr, ptr, ptr, ptr, ptr, ptr, i32 }
%struct.thread_notify = type { %struct.event, i32 }
%struct.iop_head_s = type { ptr, ptr }
%struct.thread_stats = type { %union.pthread_mutex_t, i64, i64, i64, i64, i64, i64, i64, i64, i64, i64, i64, i64, i64, i64, i64, i64, i64, i64, i64, i64, i64, i64, i64, i64, i64, i64, i64, i64, i64, i64, [64 x %struct.slab_stats], [256 x i64], i64, i64, i64 }
%struct.slab_stats = type { i64, i64, i64, i64, i64, i64, i64, i64 }
%struct.io_queue_s = type { ptr, %struct.iop_head_s, ptr, i32 }
%struct._mc_resp = type { ptr, ptr, i32, i32, ptr, ptr, ptr, [4 x %struct.iovec], i32, i8, i8, i8, i8, i8, i16, i16, i16, %struct.sockaddr_in6, i32, [1024 x i8] }
%struct.iovec = type { ptr, i64 }
%struct._mc_resp_bundle = type { i8, i8, ptr, ptr, ptr, [0 x %struct._mc_resp] }

; Function Attrs: nounwind uwtable
define dso_local void @resp_free(ptr noundef %0, ptr noundef %1) #0 {
  %3 = alloca ptr, align 8
  %4 = alloca ptr, align 8
  %5 = alloca ptr, align 8
  %6 = alloca ptr, align 8
  %7 = alloca ptr, align 8
  store ptr %0, ptr %3, align 8, !tbaa !68
  store ptr %1, ptr %4, align 8, !tbaa !132
  call void @llvm.lifetime.start.p0(i64 8, ptr %5) #15
  %8 = load ptr, ptr %4, align 8, !tbaa !132
  %9 = getelementptr inbounds nuw %struct._mc_resp, ptr %8, i32 0, i32 0
  %10 = load ptr, ptr %9, align 8, !tbaa !155
  store ptr %10, ptr %5, align 8, !tbaa !156
  %11 = load ptr, ptr %4, align 8, !tbaa !132
  %12 = getelementptr inbounds nuw %struct._mc_resp, ptr %11, i32 0, i32 13
  store i8 1, ptr %12, align 8, !tbaa !133
  %13 = load ptr, ptr %5, align 8, !tbaa !156
  %14 = getelementptr inbounds nuw %struct._mc_resp_bundle, ptr %13, i32 0, i32 0
  %15 = load i8, ptr %14, align 8, !tbaa !61
  %16 = add i8 %15, -1
  store i8 %16, ptr %14, align 8, !tbaa !61
  %17 = load ptr, ptr %5, align 8, !tbaa !156
  %18 = getelementptr inbounds nuw %struct._mc_resp_bundle, ptr %17, i32 0, i32 0
  %19 = load i8, ptr %18, align 8, !tbaa !61
  %20 = zext i8 %19 to i32
  %21 = icmp eq i32 %20, 0
  br i1 %21, label %22, label %93

22:                                               ; preds = %2
  %23 = load ptr, ptr %5, align 8, !tbaa !156
  %24 = load ptr, ptr %3, align 8, !tbaa !68
  %25 = getelementptr inbounds nuw %struct.LIBEVENT_THREAD, ptr %24, i32 0, i32 13
  %26 = load ptr, ptr %25, align 8, !tbaa !157
  %27 = icmp eq ptr %23, %26
  br i1 %27, label %28, label %36

28:                                               ; preds = %22
  %29 = load ptr, ptr %5, align 8, !tbaa !156
  %30 = getelementptr inbounds nuw %struct._mc_resp_bundle, ptr %29, i32 0, i32 3
  %31 = load ptr, ptr %30, align 8, !tbaa !156
  %32 = icmp eq ptr %31, null
  br i1 %32, label %33, label %36

33:                                               ; preds = %28
  %34 = load ptr, ptr %5, align 8, !tbaa !156
  %35 = getelementptr inbounds nuw %struct._mc_resp_bundle, ptr %34, i32 0, i32 1
  store i8 0, ptr %35, align 1, !tbaa !61
  br label %92

36:                                               ; preds = %28, %22
  call void @llvm.lifetime.start.p0(i64 8, ptr %6) #15
  %37 = load ptr, ptr %3, align 8, !tbaa !68
  %38 = getelementptr inbounds nuw %struct.LIBEVENT_THREAD, ptr %37, i32 0, i32 13
  store ptr %38, ptr %6, align 8, !tbaa !158
  %39 = load ptr, ptr %6, align 8, !tbaa !158
  %40 = load ptr, ptr %39, align 8, !tbaa !156
  %41 = load ptr, ptr %5, align 8, !tbaa !156
  %42 = icmp eq ptr %40, %41
  br i1 %42, label %43, label %48

43:                                               ; preds = %36
  %44 = load ptr, ptr %5, align 8, !tbaa !156
  %45 = getelementptr inbounds nuw %struct._mc_resp_bundle, ptr %44, i32 0, i32 3
  %46 = load ptr, ptr %45, align 8, !tbaa !156
  %47 = load ptr, ptr %6, align 8, !tbaa !158
  store ptr %46, ptr %47, align 8, !tbaa !156
  br label %48

48:                                               ; preds = %43, %36
  %49 = load ptr, ptr %5, align 8, !tbaa !156
  %50 = getelementptr inbounds nuw %struct._mc_resp_bundle, ptr %49, i32 0, i32 3
  %51 = load ptr, ptr %50, align 8, !tbaa !156
  %52 = icmp ne ptr %51, null
  br i1 %52, label %53, label %61

53:                                               ; preds = %48
  %54 = load ptr, ptr %5, align 8, !tbaa !156
  %55 = getelementptr inbounds nuw %struct._mc_resp_bundle, ptr %54, i32 0, i32 4
  %56 = load ptr, ptr %55, align 8, !tbaa !156
  %57 = load ptr, ptr %5, align 8, !tbaa !156
  %58 = getelementptr inbounds nuw %struct._mc_resp_bundle, ptr %57, i32 0, i32 3
  %59 = load ptr, ptr %58, align 8, !tbaa !156
  %60 = getelementptr inbounds nuw %struct._mc_resp_bundle, ptr %59, i32 0, i32 4
  store ptr %56, ptr %60, align 8, !tbaa !156
  br label %61

61:                                               ; preds = %53, %48
  %62 = load ptr, ptr %5, align 8, !tbaa !156
  %63 = getelementptr inbounds nuw %struct._mc_resp_bundle, ptr %62, i32 0, i32 4
  %64 = load ptr, ptr %63, align 8, !tbaa !156
  %65 = icmp ne ptr %64, null
  br i1 %65, label %66, label %74

66:                                               ; preds = %61
  %67 = load ptr, ptr %5, align 8, !tbaa !156
  %68 = getelementptr inbounds nuw %struct._mc_resp_bundle, ptr %67, i32 0, i32 3
  %69 = load ptr, ptr %68, align 8, !tbaa !156
  %70 = load ptr, ptr %5, align 8, !tbaa !156
  %71 = getelementptr inbounds nuw %struct._mc_resp_bundle, ptr %70, i32 0, i32 4
  %72 = load ptr, ptr %71, align 8, !tbaa !156
  %73 = getelementptr inbounds nuw %struct._mc_resp_bundle, ptr %72, i32 0, i32 3
  store ptr %69, ptr %73, align 8, !tbaa !156
  br label %74

74:                                               ; preds = %66, %61
  %75 = load ptr, ptr %3, align 8, !tbaa !68
  %76 = getelementptr inbounds nuw %struct.LIBEVENT_THREAD, ptr %75, i32 0, i32 12
  %77 = load ptr, ptr %76, align 8, !tbaa !33
  %78 = load ptr, ptr %5, align 8, !tbaa !156
  call void @do_cache_free(ptr noundef %77, ptr noundef %78)
  %79 = load ptr, ptr %3, align 8, !tbaa !68
  %80 = getelementptr inbounds nuw %struct.LIBEVENT_THREAD, ptr %79, i32 0, i32 9
  %81 = getelementptr inbounds nuw %struct.thread_stats, ptr %80, i32 0, i32 0
  %82 = call i32 @pthread_mutex_lock(ptr noundef %81) #15
  %83 = load ptr, ptr %3, align 8, !tbaa !68
  %84 = getelementptr inbounds nuw %struct.LIBEVENT_THREAD, ptr %83, i32 0, i32 9
  %85 = getelementptr inbounds nuw %struct.thread_stats, ptr %84, i32 0, i32 21
  %86 = load i64, ptr %85, align 8, !tbaa !160
  %87 = sub i64 %86, 16384
  store i64 %87, ptr %85, align 8, !tbaa !160
  %88 = load ptr, ptr %3, align 8, !tbaa !68
  %89 = getelementptr inbounds nuw %struct.LIBEVENT_THREAD, ptr %88, i32 0, i32 9
  %90 = getelementptr inbounds nuw %struct.thread_stats, ptr %89, i32 0, i32 0
  %91 = call i32 @pthread_mutex_unlock(ptr noundef %90) #15
  call void @llvm.lifetime.end.p0(i64 8, ptr %6) #15
  br label %92

92:                                               ; preds = %74, %33
  br label %133

93:                                               ; preds = %2
  call void @llvm.lifetime.start.p0(i64 8, ptr %7) #15
  %94 = load ptr, ptr %3, align 8, !tbaa !68
  %95 = getelementptr inbounds nuw %struct.LIBEVENT_THREAD, ptr %94, i32 0, i32 13
  store ptr %95, ptr %7, align 8, !tbaa !158
  %96 = load ptr, ptr %5, align 8, !tbaa !156
  %97 = load ptr, ptr %3, align 8, !tbaa !68
  %98 = getelementptr inbounds nuw %struct.LIBEVENT_THREAD, ptr %97, i32 0, i32 13
  %99 = load ptr, ptr %98, align 8, !tbaa !157
  %100 = icmp eq ptr %96, %99
  br i1 %100, label %111, label %101

101:                                              ; preds = %93
  %102 = load ptr, ptr %5, align 8, !tbaa !156
  %103 = getelementptr inbounds nuw %struct._mc_resp_bundle, ptr %102, i32 0, i32 4
  %104 = load ptr, ptr %103, align 8, !tbaa !156
  %105 = icmp ne ptr %104, null
  br i1 %105, label %111, label %106

106:                                              ; preds = %101
  %107 = load ptr, ptr %5, align 8, !tbaa !156
  %108 = getelementptr inbounds nuw %struct._mc_resp_bundle, ptr %107, i32 0, i32 3
  %109 = load ptr, ptr %108, align 8, !tbaa !156
  %110 = icmp ne ptr %109, null
  br i1 %110, label %111, label %112

111:                                              ; preds = %106, %101, %93
  br label %132

112:                                              ; preds = %106
  %113 = load ptr, ptr %5, align 8, !tbaa !156
  %114 = getelementptr inbounds nuw %struct._mc_resp_bundle, ptr %113, i32 0, i32 4
  store ptr null, ptr %114, align 8, !tbaa !156
  %115 = load ptr, ptr %7, align 8, !tbaa !158
  %116 = load ptr, ptr %115, align 8, !tbaa !156
  %117 = load ptr, ptr %5, align 8, !tbaa !156
  %118 = getelementptr inbounds nuw %struct._mc_resp_bundle, ptr %117, i32 0, i32 3
  store ptr %116, ptr %118, align 8, !tbaa !156
  %119 = load ptr, ptr %5, align 8, !tbaa !156
  %120 = getelementptr inbounds nuw %struct._mc_resp_bundle, ptr %119, i32 0, i32 3
  %121 = load ptr, ptr %120, align 8, !tbaa !156
  %122 = icmp ne ptr %121, null
  br i1 %122, label %123, label %129

123:                                              ; preds = %112
  %124 = load ptr, ptr %5, align 8, !tbaa !156
  %125 = load ptr, ptr %5, align 8, !tbaa !156
  %126 = getelementptr inbounds nuw %struct._mc_resp_bundle, ptr %125, i32 0, i32 3
  %127 = load ptr, ptr %126, align 8, !tbaa !156
  %128 = getelementptr inbounds nuw %struct._mc_resp_bundle, ptr %127, i32 0, i32 4
  store ptr %124, ptr %128, align 8, !tbaa !156
  br label %129

129:                                              ; preds = %123, %112
  %130 = load ptr, ptr %5, align 8, !tbaa !156
  %131 = load ptr, ptr %7, align 8, !tbaa !158
  store ptr %130, ptr %131, align 8, !tbaa !156
  br label %132

132:                                              ; preds = %129, %111
  call void @llvm.lifetime.end.p0(i64 8, ptr %7) #15
  br label %133

133:                                              ; preds = %132, %92
  %134 = load ptr, ptr %3, align 8, !tbaa !68
  %135 = getelementptr inbounds nuw %struct.LIBEVENT_THREAD, ptr %134, i32 0, i32 9
  %136 = getelementptr inbounds nuw %struct.thread_stats, ptr %135, i32 0, i32 0
  %137 = call i32 @pthread_mutex_lock(ptr noundef %136) #15
  %138 = load ptr, ptr %3, align 8, !tbaa !68
  %139 = getelementptr inbounds nuw %struct.LIBEVENT_THREAD, ptr %138, i32 0, i32 9
  %140 = getelementptr inbounds nuw %struct.thread_stats, ptr %139, i32 0, i32 20
  %141 = load i64, ptr %140, align 8, !tbaa !161
  %142 = add i64 %141, -1
  store i64 %142, ptr %140, align 8, !tbaa !161
  %143 = load ptr, ptr %3, align 8, !tbaa !68
  %144 = getelementptr inbounds nuw %struct.LIBEVENT_THREAD, ptr %143, i32 0, i32 9
  %145 = getelementptr inbounds nuw %struct.thread_stats, ptr %144, i32 0, i32 0
  %146 = call i32 @pthread_mutex_unlock(ptr noundef %145) #15
  call void @llvm.lifetime.end.p0(i64 8, ptr %5) #15
  ret void
}