; Function Attrs: nounwind uwtable
define dso_local void @resp_free(ptr noundef %0, ptr noundef captures(none) initializes((120, 121)) %1) local_unnamed_addr #1 {
  %3 = load ptr, ptr %1, align 8, !tbaa !165
  %4 = getelementptr inbounds nuw i8, ptr %1, i64 120
  store i8 1, ptr %4, align 8, !tbaa !156
  %5 = load i8, ptr %3, align 8, !tbaa !76
  %6 = add i8 %5, -1
  store i8 %6, ptr %3, align 8, !tbaa !76
  %7 = icmp eq i8 %6, 0
  %8 = getelementptr inbounds nuw i8, ptr %0, i64 6944
  %9 = load ptr, ptr %8, align 8, !tbaa !166
  %10 = icmp eq ptr %3, %9
  br i1 %7, label %11, label %36

11:                                               ; preds = %2
  br i1 %10, label %12, label %19

12:                                               ; preds = %11
  %13 = getelementptr inbounds nuw i8, ptr %3, i64 16
  %14 = load ptr, ptr %13, align 8, !tbaa !167
  %15 = icmp eq ptr %14, null
  br i1 %15, label %16, label %18

16:                                               ; preds = %12
  %17 = getelementptr inbounds nuw i8, ptr %3, i64 1
  store i8 0, ptr %17, align 1, !tbaa !76
  br label %48

18:                                               ; preds = %12
  store ptr %14, ptr %8, align 8, !tbaa !167
  br label %19

19:                                               ; preds = %11, %18
  %20 = getelementptr inbounds nuw i8, ptr %3, i64 16
  %21 = load ptr, ptr %20, align 8, !tbaa !167
  %.not45 = icmp eq ptr %21, null
  %.phi.trans.insert = getelementptr inbounds nuw i8, ptr %3, i64 24
  %.pre = load ptr, ptr %.phi.trans.insert, align 8, !tbaa !167
  br i1 %.not45, label %._crit_edge, label %22

22:                                               ; preds = %19
  %23 = getelementptr inbounds nuw i8, ptr %21, i64 24
  store ptr %.pre, ptr %23, align 8, !tbaa !167
  br label %._crit_edge

._crit_edge:                                      ; preds = %19, %22
  %.not46 = icmp eq ptr %.pre, null
  br i1 %.not46, label %27, label %24

24:                                               ; preds = %._crit_edge
  %25 = load ptr, ptr %20, align 8, !tbaa !167
  %26 = getelementptr inbounds nuw i8, ptr %.pre, i64 16
  store ptr %25, ptr %26, align 8, !tbaa !167
  br label %27

27:                                               ; preds = %24, %._crit_edge
  %28 = getelementptr inbounds nuw i8, ptr %0, i64 6936
  %29 = load ptr, ptr %28, align 8, !tbaa !31
  tail call void @do_cache_free(ptr noundef %29, ptr noundef nonnull %3) #34
  %30 = getelementptr inbounds nuw i8, ptr %0, i64 360
  %31 = tail call i32 @pthread_mutex_lock(ptr noundef nonnull %30) #34
  %32 = getelementptr inbounds nuw i8, ptr %0, i64 560
  %33 = load i64, ptr %32, align 8, !tbaa !168
  %34 = add i64 %33, -16384
  store i64 %34, ptr %32, align 8, !tbaa !168
  %35 = tail call i32 @pthread_mutex_unlock(ptr noundef nonnull %30) #34
  br label %48

36:                                               ; preds = %2
  br i1 %10, label %48, label %37

37:                                               ; preds = %36
  %38 = getelementptr inbounds nuw i8, ptr %3, i64 24
  %39 = load ptr, ptr %38, align 8, !tbaa !167
  %.not = icmp eq ptr %39, null
  br i1 %.not, label %40, label %48

40:                                               ; preds = %37
  %41 = getelementptr inbounds nuw i8, ptr %3, i64 16
  %42 = load ptr, ptr %41, align 8, !tbaa !167
  %.not43 = icmp eq ptr %42, null
  br i1 %.not43, label %43, label %48

43:                                               ; preds = %40
  store ptr null, ptr %38, align 8, !tbaa !167
  %44 = load ptr, ptr %8, align 8, !tbaa !167
  store ptr %44, ptr %41, align 8, !tbaa !167
  %.not44 = icmp eq ptr %44, null
  br i1 %.not44, label %47, label %45

45:                                               ; preds = %43
  %46 = getelementptr inbounds nuw i8, ptr %44, i64 24
  store ptr %3, ptr %46, align 8, !tbaa !167
  br label %47

47:                                               ; preds = %45, %43
  store ptr %3, ptr %8, align 8, !tbaa !167
  br label %48

48:                                               ; preds = %47, %40, %37, %36, %16, %27
  %49 = getelementptr inbounds nuw i8, ptr %0, i64 360
  %50 = tail call i32 @pthread_mutex_lock(ptr noundef nonnull %49) #34
  %51 = getelementptr inbounds nuw i8, ptr %0, i64 552
  %52 = load i64, ptr %51, align 8, !tbaa !169
  %53 = add i64 %52, -1
  store i64 %53, ptr %51, align 8, !tbaa !169
  %54 = tail call i32 @pthread_mutex_unlock(ptr noundef nonnull %49) #34
  ret void
}